target datalayout = "e-m:e-p270:32:32-p271:32:32-p272:64:64-i64:64-i128:128-f80:128-n8:16:32:64-S128"
target triple = "x86_64-pc-linux-gnu"

%struct.__storeu_si128 = type { <2 x i64> }
%struct.__loadu_si128 = type { <2 x i64> }

@VP8LPredictorsAdd_C = external global [16 x ptr], align 16

; Function Attrs: alwaysinline nounwind uwtable
define internal <2 x i64> @_mm_set_epi32(i32 noundef %0, i32 noundef %1, i32 noundef %2, i32 noundef %3) #4 {
  %5 = alloca i32, align 4
  %6 = alloca i32, align 4
  %7 = alloca i32, align 4
  %8 = alloca i32, align 4
  %9 = alloca <4 x i32>, align 16
  store i32 %0, ptr %5, align 4, !tbaa !9
  store i32 %1, ptr %6, align 4, !tbaa !9
  store i32 %2, ptr %7, align 4, !tbaa !9
  store i32 %3, ptr %8, align 4, !tbaa !9
  %10 = load i32, ptr %8, align 4, !tbaa !9
  %11 = insertelement <4 x i32> poison, i32 %10, i32 0
  %12 = load i32, ptr %7, align 4, !tbaa !9
  %13 = insertelement <4 x i32> %11, i32 %12, i32 1
  %14 = load i32, ptr %6, align 4, !tbaa !9
  %15 = insertelement <4 x i32> %13, i32 %14, i32 2
  %16 = load i32, ptr %5, align 4, !tbaa !9
  %17 = insertelement <4 x i32> %15, i32 %16, i32 3
  store <4 x i32> %17, ptr %9, align 16, !tbaa !11
  %18 = load <4 x i32>, ptr %9, align 16, !tbaa !11
  %19 = bitcast <4 x i32> %18 to <2 x i64>
  ret <2 x i64> %19
}

; Function Attrs: alwaysinline nounwind uwtable
define internal void @_mm_storeu_si128(ptr noundef %0, <2 x i64> noundef %1) #4 {
  %3 = alloca ptr, align 8
  %4 = alloca <2 x i64>, align 16
  store ptr %0, ptr %3, align 8, !tbaa !3
  store <2 x i64> %1, ptr %4, align 16, !tbaa !11
  %5 = load <2 x i64>, ptr %4, align 16, !tbaa !11
  %6 = load ptr, ptr %3, align 8, !tbaa !3
  %7 = getelementptr inbounds nuw %struct.__storeu_si128, ptr %6, i32 0, i32 0
  store <2 x i64> %5, ptr %7, align 1, !tbaa !11
  ret void
}

; Function Attrs: alwaysinline nounwind uwtable
define internal <2 x i64> @_mm_add_epi8(<2 x i64> noundef %0, <2 x i64> noundef %1) #4 {
  %3 = alloca <2 x i64>, align 16
  %4 = alloca <2 x i64>, align 16
  store <2 x i64> %0, ptr %3, align 16, !tbaa !11
  store <2 x i64> %1, ptr %4, align 16, !tbaa !11
  %5 = load <2 x i64>, ptr %3, align 16, !tbaa !11
  %6 = bitcast <2 x i64> %5 to <16 x i8>
  %7 = load <2 x i64>, ptr %4, align 16, !tbaa !11
  %8 = bitcast <2 x i64> %7 to <16 x i8>
  %9 = add <16 x i8> %6, %8
  %10 = bitcast <16 x i8> %9 to <2 x i64>
  ret <2 x i64> %10
}

; Function Attrs: alwaysinline nounwind uwtable
define internal <2 x i64> @_mm_loadu_si128(ptr noundef %0) #4 {
  %2 = alloca ptr, align 8
  store ptr %0, ptr %2, align 8, !tbaa !3
  %3 = load ptr, ptr %2, align 8, !tbaa !3
  %4 = getelementptr inbounds nuw %struct.__loadu_si128, ptr %3, i32 0, i32 0
  %5 = load <2 x i64>, ptr %4, align 1, !tbaa !11
  ret <2 x i64> %5
}

; Function Attrs: alwaysinline nounwind uwtable
define internal <2 x i64> @_mm_set1_epi32(i32 noundef %0) #4 {
  %2 = alloca i32, align 4
  store i32 %0, ptr %2, align 4, !tbaa !9
  %3 = load i32, ptr %2, align 4, !tbaa !9
  %4 = load i32, ptr %2, align 4, !tbaa !9
  %5 = load i32, ptr %2, align 4, !tbaa !9
  %6 = load i32, ptr %2, align 4, !tbaa !9
  %7 = call <2 x i64> @_mm_set_epi32(i32 noundef %3, i32 noundef %4, i32 noundef %5, i32 noundef %6)
  ret <2 x i64> %7
}

; Function Attrs: nounwind uwtable
define internal void @PredictorAdd1_SSE2(ptr noundef %0, ptr noundef %1, i32 noundef %2, ptr noalias noundef %3) #1 {
  %5 = alloca ptr, align 8
  %6 = alloca ptr, align 8
  %7 = alloca i32, align 4
  %8 = alloca ptr, align 8
  %9 = alloca i32, align 4
  %10 = alloca <2 x i64>, align 16
  %11 = alloca <2 x i64>, align 16
  %12 = alloca <2 x i64>, align 16
  %13 = alloca <2 x i64>, align 16
  %14 = alloca <2 x i64>, align 16
  %15 = alloca <2 x i64>, align 16
  %16 = alloca <2 x i64>, align 16
  store ptr %0, ptr %5, align 8, !tbaa !7
  store ptr %1, ptr %6, align 8, !tbaa !7
  store i32 %2, ptr %7, align 4, !tbaa !9
  store ptr %3, ptr %8, align 8, !tbaa !7
  call void @llvm.lifetime.start.p0(i64 4, ptr %9) #9
  call void @llvm.lifetime.start.p0(i64 16, ptr %10) #9
  %17 = load ptr, ptr %8, align 8, !tbaa !7
  %18 = getelementptr inbounds i32, ptr %17, i64 -1
  %19 = load i32, ptr %18, align 4, !tbaa !9
  %20 = call <2 x i64> @_mm_set1_epi32(i32 noundef %19)
  store <2 x i64> %20, ptr %10, align 16, !tbaa !11
  store i32 0, ptr %9, align 4, !tbaa !9
  br label %21

21:                                               ; preds = %58, %4
  %22 = load i32, ptr %9, align 4, !tbaa !9
  %23 = add nsw i32 %22, 4
  %24 = load i32, ptr %7, align 4, !tbaa !9
  %25 = icmp sle i32 %23, %24
  br i1 %25, label %26, label %61

26:                                               ; preds = %21
  call void @llvm.lifetime.start.p0(i64 16, ptr %11) #9
  %27 = load ptr, ptr %5, align 8, !tbaa !7
  %28 = load i32, ptr %9, align 4, !tbaa !9
  %29 = sext i32 %28 to i64
  %30 = getelementptr inbounds i32, ptr %27, i64 %29
  %31 = call <2 x i64> @_mm_loadu_si128(ptr noundef %30)
  store <2 x i64> %31, ptr %11, align 16, !tbaa !11
  call void @llvm.lifetime.start.p0(i64 16, ptr %12) #9
  %32 = load <2 x i64>, ptr %11, align 16, !tbaa !11
  %33 = bitcast <2 x i64> %32 to <16 x i8>
  %34 = shufflevector <16 x i8> zeroinitializer, <16 x i8> %33, <16 x i32> <i32 12, i32 13, i32 14, i32 15, i32 16, i32 17, i32 18, i32 19, i32 20, i32 21, i32 22, i32 23, i32 24, i32 25, i32 26, i32 27>
  %35 = bitcast <16 x i8> %34 to <2 x i64>
  store <2 x i64> %35, ptr %12, align 16, !tbaa !11
  call void @llvm.lifetime.start.p0(i64 16, ptr %13) #9
  %36 = load <2 x i64>, ptr %11, align 16, !tbaa !11
  %37 = load <2 x i64>, ptr %12, align 16, !tbaa !11
  %38 = call <2 x i64> @_mm_add_epi8(<2 x i64> noundef %36, <2 x i64> noundef %37)
  store <2 x i64> %38, ptr %13, align 16, !tbaa !11
  call void @llvm.lifetime.start.p0(i64 16, ptr %14) #9
  %39 = load <2 x i64>, ptr %13, align 16, !tbaa !11
  %40 = bitcast <2 x i64> %39 to <16 x i8>
  %41 = shufflevector <16 x i8> zeroinitializer, <16 x i8> %40, <16 x i32> <i32 8, i32 9, i32 10, i32 11, i32 12, i32 13, i32 14, i32 15, i32 16, i32 17, i32 18, i32 19, i32 20, i32 21, i32 22, i32 23>
  %42 = bitcast <16 x i8> %41 to <2 x i64>
  store <2 x i64> %42, ptr %14, align 16, !tbaa !11
  call void @llvm.lifetime.start.p0(i64 16, ptr %15) #9
  %43 = load <2 x i64>, ptr %13, align 16, !tbaa !11
  %44 = load <2 x i64>, ptr %14, align 16, !tbaa !11
  %45 = call <2 x i64> @_mm_add_epi8(<2 x i64> noundef %43, <2 x i64> noundef %44)
  store <2 x i64> %45, ptr %15, align 16, !tbaa !11
  call void @llvm.lifetime.start.p0(i64 16, ptr %16) #9
  %46 = load <2 x i64>, ptr %15, align 16, !tbaa !11
  %47 = load <2 x i64>, ptr %10, align 16, !tbaa !11
  %48 = call <2 x i64> @_mm_add_epi8(<2 x i64> noundef %46, <2 x i64> noundef %47)
  store <2 x i64> %48, ptr %16, align 16, !tbaa !11
  %49 = load ptr, ptr %8, align 8, !tbaa !7
  %50 = load i32, ptr %9, align 4, !tbaa !9
  %51 = sext i32 %50 to i64
  %52 = getelementptr inbounds i32, ptr %49, i64 %51
  %53 = load <2 x i64>, ptr %16, align 16, !tbaa !11
  call void @_mm_storeu_si128(ptr noundef %52, <2 x i64> noundef %53)
  %54 = load <2 x i64>, ptr %16, align 16, !tbaa !11
  %55 = bitcast <2 x i64> %54 to <4 x i32>
  %56 = shufflevector <4 x i32> %55, <4 x i32> poison, <4 x i32> <i32 3, i32 3, i32 3, i32 3>
  %57 = bitcast <4 x i32> %56 to <2 x i64>
  store <2 x i64> %57, ptr %10, align 16, !tbaa !11
  call void @llvm.lifetime.end.p0(i64 16, ptr %16) #9
  call void @llvm.lifetime.end.p0(i64 16, ptr %15) #9
  call void @llvm.lifetime.end.p0(i64 16, ptr %14) #9
  call void @llvm.lifetime.end.p0(i64 16, ptr %13) #9
  call void @llvm.lifetime.end.p0(i64 16, ptr %12) #9
  call void @llvm.lifetime.end.p0(i64 16, ptr %11) #9
  br label %58

58:                                               ; preds = %26
  %59 = load i32, ptr %9, align 4, !tbaa !9
  %60 = add nsw i32 %59, 4
  store i32 %60, ptr %9, align 4, !tbaa !9
  br label %21, !llvm.loop !14

61:                                               ; preds = %21
  %62 = load i32, ptr %9, align 4, !tbaa !9
  %63 = load i32, ptr %7, align 4, !tbaa !9
  %64 = icmp ne i32 %62, %63
  br i1 %64, label %65, label %82

65:                                               ; preds = %61
  %66 = load ptr, ptr getelementptr inbounds ([16 x ptr], ptr @VP8LPredictorsAdd_C, i64 0, i64 1), align 8, !tbaa !3
  %67 = load ptr, ptr %5, align 8, !tbaa !7
  %68 = load i32, ptr %9, align 4, !tbaa !9
  %69 = sext i32 %68 to i64
  %70 = getelementptr inbounds i32, ptr %67, i64 %69
  %71 = load ptr, ptr %6, align 8, !tbaa !7
  %72 = load i32, ptr %9, align 4, !tbaa !9
  %73 = sext i32 %72 to i64
  %74 = getelementptr inbounds i32, ptr %71, i64 %73
  %75 = load i32, ptr %7, align 4, !tbaa !9
  %76 = load i32, ptr %9, align 4, !tbaa !9
  %77 = sub nsw i32 %75, %76
  %78 = load ptr, ptr %8, align 8, !tbaa !7
  %79 = load i32, ptr %9, align 4, !tbaa !9
  %80 = sext i32 %79 to i64
  %81 = getelementptr inbounds i32, ptr %78, i64 %80
  call void %66(ptr noundef %70, ptr noundef %74, i32 noundef %77, ptr noundef %81)
  br label %82

82:                                               ; preds = %65, %61
  call void @llvm.lifetime.end.p0(i64 16, ptr %10) #9
  call void @llvm.lifetime.end.p0(i64 4, ptr %9) #9
  ret void
}