; Function Attrs: nounwind uwtable
define internal void @PredictorAdd1_SSE2(ptr noundef %0, ptr noundef %1, i32 noundef %2, ptr noalias noundef %3) #2 {
  %.not31 = icmp slt i32 %2, 4
  br i1 %.not31, label %._crit_edge, label %.lr.ph.preheader

.lr.ph.preheader:                                 ; preds = %4
  %5 = getelementptr inbounds i8, ptr %3, i64 -4
  %6 = load i32, ptr %5, align 4, !tbaa !7
  %7 = insertelement <4 x i32> poison, i32 %6, i64 0
  %8 = shufflevector <4 x i32> %7, <4 x i32> poison, <4 x i32> zeroinitializer
  %9 = zext nneg i32 %2 to i64
  br label %.lr.ph

.lr.ph:                                           ; preds = %.lr.ph.preheader, %.lr.ph
  %indvars.iv34 = phi i64 [ 0, %.lr.ph.preheader ], [ %indvars.iv.next35, %.lr.ph ]
  %indvars.iv = phi i64 [ 4, %.lr.ph.preheader ], [ %indvars.iv.next, %.lr.ph ]
  %.027.in32 = phi <4 x i32> [ %8, %.lr.ph.preheader ], [ %20, %.lr.ph ]
  %10 = getelementptr inbounds nuw i32, ptr %0, i64 %indvars.iv34
  %11 = load <16 x i8>, ptr %10, align 1, !tbaa !9
  %12 = shufflevector <16 x i8> <i8 poison, i8 poison, i8 poison, i8 poison, i8 poison, i8 poison, i8 poison, i8 poison, i8 poison, i8 poison, i8 poison, i8 poison, i8 0, i8 0, i8 0, i8 0>, <16 x i8> %11, <16 x i32> <i32 12, i32 13, i32 14, i32 15, i32 16, i32 17, i32 18, i32 19, i32 20, i32 21, i32 22, i32 23, i32 24, i32 25, i32 26, i32 27>
  %13 = add <16 x i8> %12, %11
  %14 = shufflevector <16 x i8> <i8 poison, i8 poison, i8 poison, i8 poison, i8 poison, i8 poison, i8 poison, i8 poison, i8 0, i8 0, i8 0, i8 0, i8 0, i8 0, i8 0, i8 0>, <16 x i8> %13, <16 x i32> <i32 8, i32 9, i32 10, i32 11, i32 12, i32 13, i32 14, i32 15, i32 16, i32 17, i32 18, i32 19, i32 20, i32 21, i32 22, i32 23>
  %15 = bitcast <4 x i32> %.027.in32 to <16 x i8>
  %16 = add <16 x i8> %13, %15
  %17 = add <16 x i8> %16, %14
  %18 = getelementptr inbounds nuw i32, ptr %3, i64 %indvars.iv34
  store <16 x i8> %17, ptr %18, align 1, !tbaa !9
  %19 = bitcast <16 x i8> %17 to <4 x i32>
  %20 = shufflevector <4 x i32> %19, <4 x i32> poison, <4 x i32> <i32 3, i32 3, i32 3, i32 3>
  %indvars.iv.next = add nuw nsw i64 %indvars.iv, 4
  %.not = icmp samesign ugt i64 %indvars.iv.next, %9
  %indvars.iv.next35 = add nuw nsw i64 %indvars.iv34, 4
  br i1 %.not, label %._crit_edge.loopexit, label %.lr.ph, !llvm.loop !12

._crit_edge.loopexit:                             ; preds = %.lr.ph
  %21 = trunc nuw nsw i64 %indvars.iv to i32
  br label %._crit_edge

._crit_edge:                                      ; preds = %._crit_edge.loopexit, %4
  %.0.lcssa = phi i32 [ 0, %4 ], [ %21, %._crit_edge.loopexit ]
  %.not30 = icmp eq i32 %.0.lcssa, %2
  br i1 %.not30, label %29, label %22

22:                                               ; preds = %._crit_edge
  %23 = load ptr, ptr getelementptr inbounds nuw (i8, ptr @VP8LPredictorsAdd_C, i64 8), align 8, !tbaa !3
  %24 = zext nneg i32 %.0.lcssa to i64
  %25 = getelementptr inbounds nuw i32, ptr %0, i64 %24
  %26 = getelementptr inbounds nuw i32, ptr %1, i64 %24
  %27 = sub nsw i32 %2, %.0.lcssa
  %28 = getelementptr inbounds nuw i32, ptr %3, i64 %24
  tail call void %23(ptr noundef %25, ptr noundef %26, i32 noundef %27, ptr noundef %28) #7
  br label %29

29:                                               ; preds = %22, %._crit_edge
  ret void
}